target datalayout = "e-m:e-p270:32:32-p271:32:32-p272:64:64-i64:64-i128:128-f80:128-n8:16:32:64-S128"
target triple = "x86_64-pc-linux-gnu"

@tcg_env = external global ptr, align 8
@.str = private unnamed_addr constant [26 x i8] c"../qemu/tcg/tcg-op-gvec.c\00", align 1
@__func__.do_dup_store = private unnamed_addr constant [13 x i8] c"do_dup_store\00", align 1

; Function Attrs: nounwind sspstrong uwtable
define internal void @expand_clr(i32 noundef %0, i32 noundef %1) #0 {
  %3 = alloca i32, align 4
  %4 = alloca i32, align 4
  store i32 %0, ptr %3, align 4
  store i32 %1, ptr %4, align 4
  %5 = load i32, ptr %3, align 4
  %6 = load i32, ptr %4, align 4
  %7 = load i32, ptr %4, align 4
  call void @do_dup(i32 noundef 0, i32 noundef %5, i32 noundef %6, i32 noundef %7, ptr noundef null, ptr noundef null, i64 noundef 0)
  ret void
}

; Function Attrs: nounwind sspstrong uwtable
define internal void @do_dup_store(i32 noundef %0, i32 noundef %1, i32 noundef %2, i32 noundef %3, ptr noundef %4) #0 {
  %6 = alloca i32, align 4
  %7 = alloca i32, align 4
  %8 = alloca i32, align 4
  %9 = alloca i32, align 4
  %10 = alloca ptr, align 8
  %11 = alloca i32, align 4
  store i32 %0, ptr %6, align 4
  store i32 %1, ptr %7, align 4
  store i32 %2, ptr %8, align 4
  store i32 %3, ptr %9, align 4
  store ptr %4, ptr %10, align 8
  call void @llvm.lifetime.start.p0(i64 4, ptr %11) #10
  store i32 0, ptr %11, align 4
  br label %12

12:                                               ; preds = %5
  %13 = load i32, ptr %8, align 4
  %14 = icmp uge i32 %13, 8
  br i1 %14, label %16, label %15

15:                                               ; preds = %12
  unreachable

16:                                               ; preds = %12
  br label %17

17:                                               ; preds = %16
  br label %18

18:                                               ; preds = %17
  %19 = load i32, ptr %7, align 4
  %20 = and i32 %19, 8
  %21 = icmp ne i32 %20, 0
  br i1 %21, label %22, label %31

22:                                               ; preds = %18
  %23 = load ptr, ptr %10, align 8
  %24 = load ptr, ptr @tcg_env, align 8
  %25 = load i32, ptr %7, align 4
  %26 = load i32, ptr %11, align 4
  %27 = add i32 %25, %26
  %28 = zext i32 %27 to i64
  call void @tcg_gen_stl_vec(ptr noundef %23, ptr noundef %24, i64 noundef %28, i32 noundef 3)
  %29 = load i32, ptr %11, align 4
  %30 = add i32 %29, 8
  store i32 %30, ptr %11, align 4
  br label %31

31:                                               ; preds = %22, %18
  %32 = load i32, ptr %6, align 4
  switch i32 %32, label %83 [
    i32 5, label %33
    i32 4, label %50
    i32 3, label %67
  ]

33:                                               ; preds = %31
  br label %34

34:                                               ; preds = %46, %33
  %35 = load i32, ptr %11, align 4
  %36 = add i32 %35, 32
  %37 = load i32, ptr %8, align 4
  %38 = icmp ule i32 %36, %37
  br i1 %38, label %39, label %49

39:                                               ; preds = %34
  %40 = load ptr, ptr %10, align 8
  %41 = load ptr, ptr @tcg_env, align 8
  %42 = load i32, ptr %7, align 4
  %43 = load i32, ptr %11, align 4
  %44 = add i32 %42, %43
  %45 = zext i32 %44 to i64
  call void @tcg_gen_stl_vec(ptr noundef %40, ptr noundef %41, i64 noundef %45, i32 noundef 5)
  br label %46

46:                                               ; preds = %39
  %47 = load i32, ptr %11, align 4
  %48 = add i32 %47, 32
  store i32 %48, ptr %11, align 4
  br label %34, !llvm.loop !40

49:                                               ; preds = %34
  br label %50

50:                                               ; preds = %31, %49
  br label %51

51:                                               ; preds = %63, %50
  %52 = load i32, ptr %11, align 4
  %53 = add i32 %52, 16
  %54 = load i32, ptr %8, align 4
  %55 = icmp ule i32 %53, %54
  br i1 %55, label %56, label %66

56:                                               ; preds = %51
  %57 = load ptr, ptr %10, align 8
  %58 = load ptr, ptr @tcg_env, align 8
  %59 = load i32, ptr %7, align 4
  %60 = load i32, ptr %11, align 4
  %61 = add i32 %59, %60
  %62 = zext i32 %61 to i64
  call void @tcg_gen_stl_vec(ptr noundef %57, ptr noundef %58, i64 noundef %62, i32 noundef 4)
  br label %63

63:                                               ; preds = %56
  %64 = load i32, ptr %11, align 4
  %65 = add i32 %64, 16
  store i32 %65, ptr %11, align 4
  br label %51, !llvm.loop !41

66:                                               ; preds = %51
  br label %87

67:                                               ; preds = %31
  br label %68

68:                                               ; preds = %79, %67
  %69 = load i32, ptr %11, align 4
  %70 = load i32, ptr %8, align 4
  %71 = icmp ult i32 %69, %70
  br i1 %71, label %72, label %82

72:                                               ; preds = %68
  %73 = load ptr, ptr %10, align 8
  %74 = load ptr, ptr @tcg_env, align 8
  %75 = load i32, ptr %7, align 4
  %76 = load i32, ptr %11, align 4
  %77 = add i32 %75, %76
  %78 = zext i32 %77 to i64
  call void @tcg_gen_stl_vec(ptr noundef %73, ptr noundef %74, i64 noundef %78, i32 noundef 3)
  br label %79

79:                                               ; preds = %72
  %80 = load i32, ptr %11, align 4
  %81 = add i32 %80, 8
  store i32 %81, ptr %11, align 4
  br label %68, !llvm.loop !42

82:                                               ; preds = %68
  br label %87

83:                                               ; preds = %31
  br label %84

84:                                               ; preds = %83
  call void @g_assertion_message_expr(ptr noundef null, ptr noundef @.str, i32 noundef 525, ptr noundef @__func__.do_dup_store, ptr noundef null) #12
  unreachable

85:                                               ; No predecessors!
  br label %86

86:                                               ; preds = %85
  br label %87

87:                                               ; preds = %86, %82, %66
  %88 = load i32, ptr %8, align 4
  %89 = load i32, ptr %9, align 4
  %90 = icmp ult i32 %88, %89
  br i1 %90, label %91, label %98

91:                                               ; preds = %87
  %92 = load i32, ptr %7, align 4
  %93 = load i32, ptr %8, align 4
  %94 = add i32 %92, %93
  %95 = load i32, ptr %9, align 4
  %96 = load i32, ptr %8, align 4
  %97 = sub i32 %95, %96
  call void @expand_clr(i32 noundef %94, i32 noundef %97)
  br label %98

98:                                               ; preds = %91, %87
  call void @llvm.lifetime.end.p0(i64 4, ptr %11) #10
  ret void
}