; Function Attrs: nounwind sspstrong uwtable
define internal fastcc void @do_dup_store(i32 noundef range(i32 1, 0) %0, i32 noundef %1, i32 noundef %2, i32 noundef %3, ptr noundef %4) unnamed_addr #2 {
  %6 = icmp ugt i32 %2, 7
  tail call void @llvm.assume(i1 %6)
  %7 = and i32 %1, 8
  %.not = icmp eq i32 %7, 0
  br i1 %.not, label %11, label %8

8:                                                ; preds = %5
  %9 = load ptr, ptr @tcg_env, align 8
  %10 = zext i32 %1 to i64
  tail call void @tcg_gen_stl_vec(ptr noundef %4, ptr noundef %9, i64 noundef %10, i32 noundef 3) #10
  br label %11

11:                                               ; preds = %8, %5
  %.0 = phi i32 [ 8, %8 ], [ 0, %5 ]
  switch i32 %0, label %30 [
    i32 5, label %.preheader
    i32 4, label %.loopexit36
    i32 3, label %.preheader37
  ]

.preheader37:                                     ; preds = %11
  %12 = icmp ult i32 %.0, %2
  br i1 %12, label %.lr.ph, label %.loopexit

.preheader:                                       ; preds = %11
  %13 = or disjoint i32 %.0, 32
  %.not3440 = icmp ugt i32 %13, %2
  br i1 %.not3440, label %.loopexit36, label %.lr.ph42

.lr.ph42:                                         ; preds = %.preheader, %.lr.ph42
  %14 = phi i32 [ %18, %.lr.ph42 ], [ %13, %.preheader ]
  %.241 = phi i32 [ %14, %.lr.ph42 ], [ %.0, %.preheader ]
  %15 = load ptr, ptr @tcg_env, align 8
  %16 = add i32 %.241, %1
  %17 = zext i32 %16 to i64
  tail call void @tcg_gen_stl_vec(ptr noundef %4, ptr noundef %15, i64 noundef %17, i32 noundef 5) #10
  %18 = add i32 %14, 32
  %.not34 = icmp ugt i32 %18, %2
  br i1 %.not34, label %.loopexit36, label %.lr.ph42, !llvm.loop !39

.loopexit36:                                      ; preds = %.lr.ph42, %.preheader, %11
  %.1 = phi i32 [ %.0, %11 ], [ %.0, %.preheader ], [ %14, %.lr.ph42 ]
  %19 = add i32 %.1, 16
  %.not3543 = icmp ugt i32 %19, %2
  br i1 %.not3543, label %.loopexit, label %.lr.ph45

.lr.ph45:                                         ; preds = %.loopexit36, %.lr.ph45
  %20 = phi i32 [ %24, %.lr.ph45 ], [ %19, %.loopexit36 ]
  %.344 = phi i32 [ %20, %.lr.ph45 ], [ %.1, %.loopexit36 ]
  %21 = load ptr, ptr @tcg_env, align 8
  %22 = add i32 %.344, %1
  %23 = zext i32 %22 to i64
  tail call void @tcg_gen_stl_vec(ptr noundef %4, ptr noundef %21, i64 noundef %23, i32 noundef 4) #10
  %24 = add i32 %20, 16
  %.not35 = icmp ugt i32 %24, %2
  br i1 %.not35, label %.loopexit, label %.lr.ph45, !llvm.loop !40

.lr.ph:                                           ; preds = %.preheader37, %.lr.ph
  %.439 = phi i32 [ %28, %.lr.ph ], [ %.0, %.preheader37 ]
  %25 = load ptr, ptr @tcg_env, align 8
  %26 = add i32 %.439, %1
  %27 = zext i32 %26 to i64
  tail call void @tcg_gen_stl_vec(ptr noundef %4, ptr noundef %25, i64 noundef %27, i32 noundef 3) #10
  %28 = add i32 %.439, 8
  %29 = icmp ult i32 %28, %2
  br i1 %29, label %.lr.ph, label %.loopexit, !llvm.loop !41

30:                                               ; preds = %11
  tail call void @g_assertion_message_expr(ptr noundef null, ptr noundef nonnull @.str, i32 noundef 525, ptr noundef nonnull @__func__.do_dup_store, ptr noundef null) #11
  unreachable

.loopexit:                                        ; preds = %.lr.ph, %.lr.ph45, %.preheader37, %.loopexit36
  %31 = icmp ult i32 %2, %3
  br i1 %31, label %32, label %35

32:                                               ; preds = %.loopexit
  %33 = add i32 %2, %1
  %34 = sub nuw i32 %3, %2
  tail call fastcc void @do_dup(i32 noundef 0, i32 noundef %33, i32 noundef %34, i32 noundef %34, ptr noundef null, ptr noundef null, i64 noundef 0)
  br label %35

35:                                               ; preds = %32, %.loopexit
  ret void
}